target datalayout = "e-m:e-p270:32:32-p271:32:32-p272:64:64-i64:64-i128:128-f80:128-n8:16:32:64-S128"
target triple = "x86_64-unknown-linux-gnu"

%"class.datalog::rel_context" = type { %"class.datalog::rel_context_base", ptr, ptr, %"class.datalog::relation_manager", %class.obj_ref, ptr, %class.vector.22, %"class.datalog::execution_context", %"class.datalog::instruction_block", double }
%"class.datalog::rel_context_base" = type { %"class.datalog::engine_base" }
%"class.datalog::engine_base" = type { ptr, ptr, %"class.std::__cxx11::basic_string" }
%"class.std::__cxx11::basic_string" = type { %"struct.std::__cxx11::basic_string<char>::_Alloc_hider", i64, %union.anon }
%"struct.std::__cxx11::basic_string<char>::_Alloc_hider" = type { ptr }
%union.anon = type { i64, [8 x i8] }
%"class.datalog::relation_manager" = type { ptr, ptr, %class.ptr_vector, %class.ptr_vector.0, %class.map, %class.map.2, %class.u_map, ptr, ptr, %class.obj_map, %class.obj_hashtable, i32, i32, %class.obj_map.17 }
%class.ptr_vector = type { %class.vector }
%class.vector = type { ptr }
%class.ptr_vector.0 = type { %class.vector.1 }
%class.vector.1 = type { ptr }
%class.map = type { %class.table2map }
%class.table2map = type { %class.core_hashtable }
%class.core_hashtable = type <{ ptr, i32, i32, i32, [4 x i8] }>
%class.map.2 = type { %class.table2map.3 }
%class.table2map.3 = type { %class.core_hashtable.4 }
%class.core_hashtable.4 = type <{ ptr, i32, i32, i32, [4 x i8] }>
%class.u_map = type { %class.map.8 }
%class.map.8 = type { %class.table2map.9 }
%class.table2map.9 = type { %class.core_hashtable.10 }
%class.core_hashtable.10 = type <{ ptr, i32, i32, i32, [4 x i8] }>
%class.obj_map = type { %class.core_hashtable.12 }
%class.core_hashtable.12 = type <{ ptr, i32, i32, i32, [4 x i8] }>
%class.obj_hashtable = type { %class.core_hashtable.base.16, [4 x i8] }
%class.core_hashtable.base.16 = type <{ ptr, i32, i32, i32 }>
%class.obj_map.17 = type { %class.core_hashtable.18 }
%class.core_hashtable.18 = type <{ ptr, i32, i32, i32, [4 x i8] }>
%class.obj_ref = type { ptr, ptr }
%class.vector.22 = type { ptr }
%"class.datalog::execution_context" = type <{ ptr, %class.vector.23, %class.u_map.24, ptr, i32, %"struct.datalog::execution_context::stats", [4 x i8] }>
%class.vector.23 = type { ptr }
%class.u_map.24 = type { %class.map.25 }
%class.map.25 = type { %class.table2map.26 }
%class.table2map.26 = type { %class.core_hashtable.27 }
%class.core_hashtable.27 = type <{ ptr, i32, i32, i32, [4 x i8] }>
%"struct.datalog::execution_context::stats" = type { i32, i32, i32, i32, i32, i32, i32, i32, i32, i32, i32, i32, i32, i32 }
%"class.datalog::instruction_block" = type { %class.ptr_vector.29, ptr }
%class.ptr_vector.29 = type { %class.vector.30 }
%class.vector.30 = type { ptr }

; Function Attrs: mustprogress uwtable
define hidden noundef zeroext i1 @_ZN7datalog11rel_context20result_contains_factERKNS_13relation_factE(ptr noundef nonnull align 8 dereferenceable(432) %this, ptr noundef nonnull align 8 dereferenceable(16) %f) unnamed_addr #4 align 2 {
entry:
  %this.addr = alloca ptr, align 8
  %f.addr = alloca ptr, align 8
  store ptr %this, ptr %this.addr, align 8
  store ptr %f, ptr %f.addr, align 8
  %this1 = load ptr, ptr %this.addr, align 8
  %m_last_result_relation = getelementptr inbounds %"class.datalog::rel_context", ptr %this1, i32 0, i32 5
  %0 = load ptr, ptr %m_last_result_relation, align 8
  %1 = load ptr, ptr %f.addr, align 8
  %vtable = load ptr, ptr %0, align 8
  %vfn = getelementptr inbounds ptr, ptr %vtable, i64 7
  %2 = load ptr, ptr %vfn, align 8
  %call = call noundef zeroext i1 %2(ptr noundef nonnull align 8 dereferenceable(28) %0, ptr noundef nonnull align 8 dereferenceable(16) %1)
  ret i1 %call
}