; Function Attrs: mustprogress uwtable
define hidden noundef zeroext i1 @_ZN7datalog11rel_context20result_contains_factERKNS_13relation_factE(ptr nocapture noundef nonnull readonly align 8 dereferenceable(432) %this, ptr noundef nonnull align 8 dereferenceable(16) %f) unnamed_addr #3 align 2 {
entry:
  %m_last_result_relation = getelementptr inbounds i8, ptr %this, i64 280
  %0 = load ptr, ptr %m_last_result_relation, align 8
  %vtable = load ptr, ptr %0, align 8
  %vfn = getelementptr inbounds i8, ptr %vtable, i64 56
  %1 = load ptr, ptr %vfn, align 8
  %call = tail call noundef zeroext i1 %1(ptr noundef nonnull align 8 dereferenceable(28) %0, ptr noundef nonnull align 8 dereferenceable(16) %f)
  ret i1 %call
}